target datalayout = "e-m:e-p270:32:32-p271:32:32-p272:64:64-i64:64-i128:128-f80:128-n8:16:32:64-S128"
target triple = "x86_64-pc-linux-gnu"

; Function Attrs: nounwind uwtable
define internal i64 @readbufferfix(ptr noundef %0, i32 noundef %1) #0 {
  %3 = alloca ptr, align 8
  %4 = alloca i32, align 4
  %5 = alloca i8, align 1
  %6 = alloca i32, align 4
  %7 = alloca i64, align 8
  %8 = alloca i32, align 4
  store ptr %0, ptr %3, align 8, !tbaa !12
  store i32 %1, ptr %4, align 4, !tbaa !8
  call void @llvm.lifetime.start.p0(i64 1, ptr %5) #7
  call void @llvm.lifetime.start.p0(i64 4, ptr %6) #7
  store i32 0, ptr %6, align 4, !tbaa !8
  call void @llvm.lifetime.start.p0(i64 8, ptr %7) #7
  store i64 0, ptr %7, align 8, !tbaa !10
  call void @llvm.lifetime.start.p0(i64 4, ptr %8) #7
  store i32 0, ptr %8, align 4, !tbaa !8
  br label %9

9:                                                ; preds = %26, %2
  %10 = load ptr, ptr %3, align 8, !tbaa !12
  %11 = load i32, ptr %8, align 4, !tbaa !8
  %12 = add nsw i32 %11, 1
  store i32 %12, ptr %8, align 4, !tbaa !8
  %13 = sext i32 %11 to i64
  %14 = getelementptr inbounds i8, ptr %10, i64 %13
  %15 = load i8, ptr %14, align 1, !tbaa !40
  store i8 %15, ptr %5, align 1, !tbaa !40
  %16 = load i8, ptr %5, align 1, !tbaa !40
  %17 = zext i8 %16 to i64
  %18 = and i64 %17, 255
  %19 = load i32, ptr %6, align 4, !tbaa !8
  %20 = zext i32 %19 to i64
  %21 = shl i64 %18, %20
  %22 = load i64, ptr %7, align 8, !tbaa !10
  %23 = or i64 %22, %21
  store i64 %23, ptr %7, align 8, !tbaa !10
  %24 = load i32, ptr %6, align 4, !tbaa !8
  %25 = add nsw i32 %24, 8
  store i32 %25, ptr %6, align 4, !tbaa !8
  br label %26

26:                                               ; preds = %9
  %27 = load i32, ptr %4, align 4, !tbaa !8
  %28 = add nsw i32 %27, -1
  store i32 %28, ptr %4, align 4, !tbaa !8
  %29 = icmp ne i32 %28, 0
  br i1 %29, label %9, label %30, !llvm.loop !41

30:                                               ; preds = %26
  %31 = load i64, ptr %7, align 8, !tbaa !10
  call void @llvm.lifetime.end.p0(i64 4, ptr %8) #7
  call void @llvm.lifetime.end.p0(i64 8, ptr %7) #7
  call void @llvm.lifetime.end.p0(i64 4, ptr %6) #7
  call void @llvm.lifetime.end.p0(i64 1, ptr %5) #7
  ret i64 %31
}

; Function Attrs: nounwind uwtable
define i32 @tng_compress_inquire(ptr noundef %0, ptr noundef %1, ptr noundef %2, ptr noundef %3, ptr noundef %4, ptr noundef %5) #0 {
  %7 = alloca i32, align 4
  %8 = alloca ptr, align 8
  %9 = alloca ptr, align 8
  %10 = alloca ptr, align 8
  %11 = alloca ptr, align 8
  %12 = alloca ptr, align 8
  %13 = alloca ptr, align 8
  %14 = alloca i32, align 4
  %15 = alloca i64, align 8
  %16 = alloca i64, align 8
  %17 = alloca i32, align 4
  %18 = alloca i32, align 4
  %19 = alloca i32, align 4
  %20 = alloca i32, align 4
  %21 = alloca i32, align 4
  %22 = alloca i32, align 4
  store ptr %0, ptr %8, align 8, !tbaa !12
  store ptr %1, ptr %9, align 8, !tbaa !3
  store ptr %2, ptr %10, align 8, !tbaa !3
  store ptr %3, ptr %11, align 8, !tbaa !3
  store ptr %4, ptr %12, align 8, !tbaa !26
  store ptr %5, ptr %13, align 8, !tbaa !3
  call void @llvm.lifetime.start.p0(i64 4, ptr %14) #7
  store i32 0, ptr %14, align 4, !tbaa !8
  call void @llvm.lifetime.start.p0(i64 8, ptr %15) #7
  call void @llvm.lifetime.start.p0(i64 8, ptr %16) #7
  call void @llvm.lifetime.start.p0(i64 4, ptr %17) #7
  call void @llvm.lifetime.start.p0(i64 4, ptr %18) #7
  call void @llvm.lifetime.start.p0(i64 4, ptr %19) #7
  call void @llvm.lifetime.start.p0(i64 4, ptr %20) #7
  call void @llvm.lifetime.start.p0(i64 4, ptr %21) #7
  %23 = load ptr, ptr %8, align 8, !tbaa !12
  %24 = load i32, ptr %14, align 4, !tbaa !8
  %25 = sext i32 %24 to i64
  %26 = getelementptr inbounds i8, ptr %23, i64 %25
  %27 = call i64 @readbufferfix(ptr noundef %26, i32 noundef 4)
  %28 = trunc i64 %27 to i32
  store i32 %28, ptr %21, align 4, !tbaa !8
  %29 = load i32, ptr %14, align 4, !tbaa !8
  %30 = add nsw i32 %29, 4
  store i32 %30, ptr %14, align 4, !tbaa !8
  %31 = load i32, ptr %21, align 4, !tbaa !8
  %32 = icmp eq i32 %31, 1346850388
  br i1 %32, label %33, label %35

33:                                               ; preds = %6
  %34 = load ptr, ptr %9, align 8, !tbaa !3
  store i32 0, ptr %34, align 4, !tbaa !8
  br label %42

35:                                               ; preds = %6
  %36 = load i32, ptr %21, align 4, !tbaa !8
  %37 = icmp eq i32 %36, 1447513684
  br i1 %37, label %38, label %40

38:                                               ; preds = %35
  %39 = load ptr, ptr %9, align 8, !tbaa !3
  store i32 1, ptr %39, align 4, !tbaa !8
  br label %41

40:                                               ; preds = %35
  store i32 1, ptr %7, align 4
  store i32 1, ptr %22, align 4
  br label %121

41:                                               ; preds = %38
  br label %42

42:                                               ; preds = %41, %33
  %43 = load ptr, ptr %8, align 8, !tbaa !12
  %44 = load i32, ptr %14, align 4, !tbaa !8
  %45 = sext i32 %44 to i64
  %46 = getelementptr inbounds i8, ptr %43, i64 %45
  %47 = call i64 @readbufferfix(ptr noundef %46, i32 noundef 4)
  %48 = trunc i64 %47 to i32
  %49 = load ptr, ptr %10, align 8, !tbaa !3
  store i32 %48, ptr %49, align 4, !tbaa !8
  %50 = load i32, ptr %14, align 4, !tbaa !8
  %51 = add nsw i32 %50, 4
  store i32 %51, ptr %14, align 4, !tbaa !8
  %52 = load ptr, ptr %8, align 8, !tbaa !12
  %53 = load i32, ptr %14, align 4, !tbaa !8
  %54 = sext i32 %53 to i64
  %55 = getelementptr inbounds i8, ptr %52, i64 %54
  %56 = call i64 @readbufferfix(ptr noundef %55, i32 noundef 4)
  %57 = trunc i64 %56 to i32
  %58 = load ptr, ptr %11, align 8, !tbaa !3
  store i32 %57, ptr %58, align 4, !tbaa !8
  %59 = load i32, ptr %14, align 4, !tbaa !8
  %60 = add nsw i32 %59, 4
  store i32 %60, ptr %14, align 4, !tbaa !8
  %61 = load ptr, ptr %8, align 8, !tbaa !12
  %62 = load i32, ptr %14, align 4, !tbaa !8
  %63 = sext i32 %62 to i64
  %64 = getelementptr inbounds i8, ptr %61, i64 %63
  %65 = call i64 @readbufferfix(ptr noundef %64, i32 noundef 4)
  %66 = trunc i64 %65 to i32
  store i32 %66, ptr %17, align 4, !tbaa !8
  %67 = load i32, ptr %14, align 4, !tbaa !8
  %68 = add nsw i32 %67, 4
  store i32 %68, ptr %14, align 4, !tbaa !8
  %69 = load ptr, ptr %8, align 8, !tbaa !12
  %70 = load i32, ptr %14, align 4, !tbaa !8
  %71 = sext i32 %70 to i64
  %72 = getelementptr inbounds i8, ptr %69, i64 %71
  %73 = call i64 @readbufferfix(ptr noundef %72, i32 noundef 4)
  %74 = trunc i64 %73 to i32
  store i32 %74, ptr %18, align 4, !tbaa !8
  %75 = load i32, ptr %14, align 4, !tbaa !8
  %76 = add nsw i32 %75, 4
  store i32 %76, ptr %14, align 4, !tbaa !8
  %77 = load ptr, ptr %8, align 8, !tbaa !12
  %78 = load i32, ptr %14, align 4, !tbaa !8
  %79 = sext i32 %78 to i64
  %80 = getelementptr inbounds i8, ptr %77, i64 %79
  %81 = call i64 @readbufferfix(ptr noundef %80, i32 noundef 4)
  %82 = trunc i64 %81 to i32
  store i32 %82, ptr %19, align 4, !tbaa !8
  %83 = load i32, ptr %14, align 4, !tbaa !8
  %84 = add nsw i32 %83, 4
  store i32 %84, ptr %14, align 4, !tbaa !8
  %85 = load ptr, ptr %8, align 8, !tbaa !12
  %86 = load i32, ptr %14, align 4, !tbaa !8
  %87 = sext i32 %86 to i64
  %88 = getelementptr inbounds i8, ptr %85, i64 %87
  %89 = call i64 @readbufferfix(ptr noundef %88, i32 noundef 4)
  %90 = trunc i64 %89 to i32
  store i32 %90, ptr %20, align 4, !tbaa !8
  %91 = load i32, ptr %14, align 4, !tbaa !8
  %92 = add nsw i32 %91, 4
  store i32 %92, ptr %14, align 4, !tbaa !8
  %93 = load ptr, ptr %8, align 8, !tbaa !12
  %94 = load i32, ptr %14, align 4, !tbaa !8
  %95 = sext i32 %94 to i64
  %96 = getelementptr inbounds i8, ptr %93, i64 %95
  %97 = call i64 @readbufferfix(ptr noundef %96, i32 noundef 4)
  store i64 %97, ptr %16, align 8, !tbaa !10
  %98 = load i32, ptr %14, align 4, !tbaa !8
  %99 = add nsw i32 %98, 4
  store i32 %99, ptr %14, align 4, !tbaa !8
  %100 = load ptr, ptr %8, align 8, !tbaa !12
  %101 = load i32, ptr %14, align 4, !tbaa !8
  %102 = sext i32 %101 to i64
  %103 = getelementptr inbounds i8, ptr %100, i64 %102
  %104 = call i64 @readbufferfix(ptr noundef %103, i32 noundef 4)
  store i64 %104, ptr %15, align 8, !tbaa !10
  %105 = load i64, ptr %15, align 8, !tbaa !10
  %106 = load i64, ptr %16, align 8, !tbaa !10
  %107 = call double @Ptngc_i32x2_to_d(i64 noundef %105, i64 noundef %106)
  %108 = load ptr, ptr %12, align 8, !tbaa !26
  store double %107, ptr %108, align 8, !tbaa !28
  %109 = load i32, ptr %17, align 4, !tbaa !8
  %110 = load ptr, ptr %13, align 8, !tbaa !3
  %111 = getelementptr inbounds i32, ptr %110, i64 0
  store i32 %109, ptr %111, align 4, !tbaa !8
  %112 = load i32, ptr %18, align 4, !tbaa !8
  %113 = load ptr, ptr %13, align 8, !tbaa !3
  %114 = getelementptr inbounds i32, ptr %113, i64 1
  store i32 %112, ptr %114, align 4, !tbaa !8
  %115 = load i32, ptr %19, align 4, !tbaa !8
  %116 = load ptr, ptr %13, align 8, !tbaa !3
  %117 = getelementptr inbounds i32, ptr %116, i64 2
  store i32 %115, ptr %117, align 4, !tbaa !8
  %118 = load i32, ptr %20, align 4, !tbaa !8
  %119 = load ptr, ptr %13, align 8, !tbaa !3
  %120 = getelementptr inbounds i32, ptr %119, i64 3
  store i32 %118, ptr %120, align 4, !tbaa !8
  store i32 0, ptr %7, align 4
  store i32 1, ptr %22, align 4
  br label %121

121:                                              ; preds = %42, %40
  call void @llvm.lifetime.end.p0(i64 4, ptr %21) #7
  call void @llvm.lifetime.end.p0(i64 4, ptr %20) #7
  call void @llvm.lifetime.end.p0(i64 4, ptr %19) #7
  call void @llvm.lifetime.end.p0(i64 4, ptr %18) #7
  call void @llvm.lifetime.end.p0(i64 4, ptr %17) #7
  call void @llvm.lifetime.end.p0(i64 8, ptr %16) #7
  call void @llvm.lifetime.end.p0(i64 8, ptr %15) #7
  call void @llvm.lifetime.end.p0(i64 4, ptr %14) #7
  %122 = load i32, ptr %7, align 4
  ret i32 %122
}