; Function Attrs: nounwind uwtable
define range(i32 0, 2) i32 @tng_compress_inquire(ptr noundef readonly captures(none) %0, ptr noundef writeonly captures(none) %1, ptr noundef writeonly captures(none) %2, ptr noundef writeonly captures(none) %3, ptr noundef writeonly captures(none) %4, ptr noundef writeonly captures(none) %5) local_unnamed_addr #0 {
  br label %7

7:                                                ; preds = %7, %6
  %indvars.iv10.i = phi i64 [ %indvars.iv.next11.i, %7 ], [ 0, %6 ]
  %indvars.iv.i = phi i64 [ %indvars.iv.next.i, %7 ], [ 0, %6 ]
  %.09.i = phi i32 [ %13, %7 ], [ 4, %6 ]
  %.07.i = phi i64 [ %12, %7 ], [ 0, %6 ]
  %indvars.iv.next11.i = add nuw nsw i64 %indvars.iv10.i, 1
  %8 = getelementptr inbounds nuw i8, ptr %0, i64 %indvars.iv10.i
  %9 = load i8, ptr %8, align 1, !tbaa !16
  %10 = zext i8 %9 to i64
  %11 = shl i64 %10, %indvars.iv.i
  %12 = or i64 %11, %.07.i
  %indvars.iv.next.i = add nuw nsw i64 %indvars.iv.i, 8
  %13 = add nsw i32 %.09.i, -1
  %.not.i = icmp eq i32 %13, 0
  br i1 %.not.i, label %readbufferfix.exit, label %7, !llvm.loop !36

readbufferfix.exit:                               ; preds = %7
  %14 = trunc i64 %12 to i32
  switch i32 %14, label %91 [
    i32 1346850388, label %16
    i32 1447513684, label %15
  ]

15:                                               ; preds = %readbufferfix.exit
  br label %16

16:                                               ; preds = %readbufferfix.exit, %15
  %storemerge = phi i32 [ 1, %15 ], [ 0, %readbufferfix.exit ]
  store i32 %storemerge, ptr %1, align 4, !tbaa !3
  %17 = getelementptr inbounds nuw i8, ptr %0, i64 4
  br label %18

18:                                               ; preds = %18, %16
  %indvars.iv10.i44 = phi i64 [ %indvars.iv.next11.i48, %18 ], [ 0, %16 ]
  %indvars.iv.i45 = phi i64 [ %indvars.iv.next.i49, %18 ], [ 0, %16 ]
  %.09.i46 = phi i32 [ %24, %18 ], [ 4, %16 ]
  %.07.i47 = phi i64 [ %23, %18 ], [ 0, %16 ]
  %indvars.iv.next11.i48 = add nuw nsw i64 %indvars.iv10.i44, 1
  %19 = getelementptr inbounds nuw i8, ptr %17, i64 %indvars.iv10.i44
  %20 = load i8, ptr %19, align 1, !tbaa !16
  %21 = zext i8 %20 to i64
  %22 = shl i64 %21, %indvars.iv.i45
  %23 = or i64 %22, %.07.i47
  %indvars.iv.next.i49 = add nuw nsw i64 %indvars.iv.i45, 8
  %24 = add nsw i32 %.09.i46, -1
  %.not.i50 = icmp eq i32 %24, 0
  br i1 %.not.i50, label %readbufferfix.exit51, label %18, !llvm.loop !36

readbufferfix.exit51:                             ; preds = %18
  %25 = trunc i64 %23 to i32
  store i32 %25, ptr %2, align 4, !tbaa !3
  %26 = getelementptr inbounds nuw i8, ptr %0, i64 8
  br label %27

27:                                               ; preds = %27, %readbufferfix.exit51
  %indvars.iv10.i52 = phi i64 [ %indvars.iv.next11.i56, %27 ], [ 0, %readbufferfix.exit51 ]
  %indvars.iv.i53 = phi i64 [ %indvars.iv.next.i57, %27 ], [ 0, %readbufferfix.exit51 ]
  %.09.i54 = phi i32 [ %33, %27 ], [ 4, %readbufferfix.exit51 ]
  %.07.i55 = phi i64 [ %32, %27 ], [ 0, %readbufferfix.exit51 ]
  %indvars.iv.next11.i56 = add nuw nsw i64 %indvars.iv10.i52, 1
  %28 = getelementptr inbounds nuw i8, ptr %26, i64 %indvars.iv10.i52
  %29 = load i8, ptr %28, align 1, !tbaa !16
  %30 = zext i8 %29 to i64
  %31 = shl i64 %30, %indvars.iv.i53
  %32 = or i64 %31, %.07.i55
  %indvars.iv.next.i57 = add nuw nsw i64 %indvars.iv.i53, 8
  %33 = add nsw i32 %.09.i54, -1
  %.not.i58 = icmp eq i32 %33, 0
  br i1 %.not.i58, label %readbufferfix.exit59, label %27, !llvm.loop !36

readbufferfix.exit59:                             ; preds = %27
  %34 = trunc i64 %32 to i32
  store i32 %34, ptr %3, align 4, !tbaa !3
  %35 = getelementptr inbounds nuw i8, ptr %0, i64 12
  br label %36

36:                                               ; preds = %36, %readbufferfix.exit59
  %indvars.iv10.i60 = phi i64 [ %indvars.iv.next11.i64, %36 ], [ 0, %readbufferfix.exit59 ]
  %indvars.iv.i61 = phi i64 [ %indvars.iv.next.i65, %36 ], [ 0, %readbufferfix.exit59 ]
  %.09.i62 = phi i32 [ %42, %36 ], [ 4, %readbufferfix.exit59 ]
  %.07.i63 = phi i64 [ %41, %36 ], [ 0, %readbufferfix.exit59 ]
  %indvars.iv.next11.i64 = add nuw nsw i64 %indvars.iv10.i60, 1
  %37 = getelementptr inbounds nuw i8, ptr %35, i64 %indvars.iv10.i60
  %38 = load i8, ptr %37, align 1, !tbaa !16
  %39 = zext i8 %38 to i64
  %40 = shl i64 %39, %indvars.iv.i61
  %41 = or i64 %40, %.07.i63
  %indvars.iv.next.i65 = add nuw nsw i64 %indvars.iv.i61, 8
  %42 = add nsw i32 %.09.i62, -1
  %.not.i66 = icmp eq i32 %42, 0
  br i1 %.not.i66, label %readbufferfix.exit67, label %36, !llvm.loop !36

readbufferfix.exit67:                             ; preds = %36
  %43 = getelementptr inbounds nuw i8, ptr %0, i64 16
  br label %44

44:                                               ; preds = %44, %readbufferfix.exit67
  %indvars.iv10.i68 = phi i64 [ %indvars.iv.next11.i72, %44 ], [ 0, %readbufferfix.exit67 ]
  %indvars.iv.i69 = phi i64 [ %indvars.iv.next.i73, %44 ], [ 0, %readbufferfix.exit67 ]
  %.09.i70 = phi i32 [ %50, %44 ], [ 4, %readbufferfix.exit67 ]
  %.07.i71 = phi i64 [ %49, %44 ], [ 0, %readbufferfix.exit67 ]
  %indvars.iv.next11.i72 = add nuw nsw i64 %indvars.iv10.i68, 1
  %45 = getelementptr inbounds nuw i8, ptr %43, i64 %indvars.iv10.i68
  %46 = load i8, ptr %45, align 1, !tbaa !16
  %47 = zext i8 %46 to i64
  %48 = shl i64 %47, %indvars.iv.i69
  %49 = or i64 %48, %.07.i71
  %indvars.iv.next.i73 = add nuw nsw i64 %indvars.iv.i69, 8
  %50 = add nsw i32 %.09.i70, -1
  %.not.i74 = icmp eq i32 %50, 0
  br i1 %.not.i74, label %readbufferfix.exit75, label %44, !llvm.loop !36

readbufferfix.exit75:                             ; preds = %44
  %51 = trunc i64 %41 to i32
  %52 = getelementptr inbounds nuw i8, ptr %0, i64 20
  br label %53

53:                                               ; preds = %53, %readbufferfix.exit75
  %indvars.iv10.i76 = phi i64 [ %indvars.iv.next11.i80, %53 ], [ 0, %readbufferfix.exit75 ]
  %indvars.iv.i77 = phi i64 [ %indvars.iv.next.i81, %53 ], [ 0, %readbufferfix.exit75 ]
  %.09.i78 = phi i32 [ %59, %53 ], [ 4, %readbufferfix.exit75 ]
  %.07.i79 = phi i64 [ %58, %53 ], [ 0, %readbufferfix.exit75 ]
  %indvars.iv.next11.i80 = add nuw nsw i64 %indvars.iv10.i76, 1
  %54 = getelementptr inbounds nuw i8, ptr %52, i64 %indvars.iv10.i76
  %55 = load i8, ptr %54, align 1, !tbaa !16
  %56 = zext i8 %55 to i64
  %57 = shl i64 %56, %indvars.iv.i77
  %58 = or i64 %57, %.07.i79
  %indvars.iv.next.i81 = add nuw nsw i64 %indvars.iv.i77, 8
  %59 = add nsw i32 %.09.i78, -1
  %.not.i82 = icmp eq i32 %59, 0
  br i1 %.not.i82, label %readbufferfix.exit83, label %53, !llvm.loop !36

readbufferfix.exit83:                             ; preds = %53
  %60 = trunc i64 %49 to i32
  %61 = getelementptr inbounds nuw i8, ptr %0, i64 24
  br label %62

62:                                               ; preds = %62, %readbufferfix.exit83
  %indvars.iv10.i84 = phi i64 [ %indvars.iv.next11.i88, %62 ], [ 0, %readbufferfix.exit83 ]
  %indvars.iv.i85 = phi i64 [ %indvars.iv.next.i89, %62 ], [ 0, %readbufferfix.exit83 ]
  %.09.i86 = phi i32 [ %68, %62 ], [ 4, %readbufferfix.exit83 ]
  %.07.i87 = phi i64 [ %67, %62 ], [ 0, %readbufferfix.exit83 ]
  %indvars.iv.next11.i88 = add nuw nsw i64 %indvars.iv10.i84, 1
  %63 = getelementptr inbounds nuw i8, ptr %61, i64 %indvars.iv10.i84
  %64 = load i8, ptr %63, align 1, !tbaa !16
  %65 = zext i8 %64 to i64
  %66 = shl i64 %65, %indvars.iv.i85
  %67 = or i64 %66, %.07.i87
  %indvars.iv.next.i89 = add nuw nsw i64 %indvars.iv.i85, 8
  %68 = add nsw i32 %.09.i86, -1
  %.not.i90 = icmp eq i32 %68, 0
  br i1 %.not.i90, label %readbufferfix.exit91, label %62, !llvm.loop !36

readbufferfix.exit91:                             ; preds = %62
  %69 = trunc i64 %58 to i32
  %70 = getelementptr inbounds nuw i8, ptr %0, i64 28
  br label %71

71:                                               ; preds = %71, %readbufferfix.exit91
  %indvars.iv10.i92 = phi i64 [ %indvars.iv.next11.i96, %71 ], [ 0, %readbufferfix.exit91 ]
  %indvars.iv.i93 = phi i64 [ %indvars.iv.next.i97, %71 ], [ 0, %readbufferfix.exit91 ]
  %.09.i94 = phi i32 [ %77, %71 ], [ 4, %readbufferfix.exit91 ]
  %.07.i95 = phi i64 [ %76, %71 ], [ 0, %readbufferfix.exit91 ]
  %indvars.iv.next11.i96 = add nuw nsw i64 %indvars.iv10.i92, 1
  %72 = getelementptr inbounds nuw i8, ptr %70, i64 %indvars.iv10.i92
  %73 = load i8, ptr %72, align 1, !tbaa !16
  %74 = zext i8 %73 to i64
  %75 = shl i64 %74, %indvars.iv.i93
  %76 = or i64 %75, %.07.i95
  %indvars.iv.next.i97 = add nuw nsw i64 %indvars.iv.i93, 8
  %77 = add nsw i32 %.09.i94, -1
  %.not.i98 = icmp eq i32 %77, 0
  br i1 %.not.i98, label %readbufferfix.exit99, label %71, !llvm.loop !36

readbufferfix.exit99:                             ; preds = %71
  %78 = getelementptr inbounds nuw i8, ptr %0, i64 32
  br label %79

79:                                               ; preds = %79, %readbufferfix.exit99
  %indvars.iv10.i100 = phi i64 [ %indvars.iv.next11.i104, %79 ], [ 0, %readbufferfix.exit99 ]
  %indvars.iv.i101 = phi i64 [ %indvars.iv.next.i105, %79 ], [ 0, %readbufferfix.exit99 ]
  %.09.i102 = phi i32 [ %85, %79 ], [ 4, %readbufferfix.exit99 ]
  %.07.i103 = phi i64 [ %84, %79 ], [ 0, %readbufferfix.exit99 ]
  %indvars.iv.next11.i104 = add nuw nsw i64 %indvars.iv10.i100, 1
  %80 = getelementptr inbounds nuw i8, ptr %78, i64 %indvars.iv10.i100
  %81 = load i8, ptr %80, align 1, !tbaa !16
  %82 = zext i8 %81 to i64
  %83 = shl i64 %82, %indvars.iv.i101
  %84 = or i64 %83, %.07.i103
  %indvars.iv.next.i105 = add nuw nsw i64 %indvars.iv.i101, 8
  %85 = add nsw i32 %.09.i102, -1
  %.not.i106 = icmp eq i32 %85, 0
  br i1 %.not.i106, label %readbufferfix.exit107, label %79, !llvm.loop !36

readbufferfix.exit107:                            ; preds = %79
  %86 = trunc i64 %67 to i32
  %87 = tail call double @Ptngc_i32x2_to_d(i64 noundef %84, i64 noundef %76) #13
  store double %87, ptr %4, align 8, !tbaa !21
  store i32 %51, ptr %5, align 4, !tbaa !3
  %88 = getelementptr inbounds nuw i8, ptr %5, i64 4
  store i32 %60, ptr %88, align 4, !tbaa !3
  %89 = getelementptr inbounds nuw i8, ptr %5, i64 8
  store i32 %69, ptr %89, align 4, !tbaa !3
  %90 = getelementptr inbounds nuw i8, ptr %5, i64 12
  store i32 %86, ptr %90, align 4, !tbaa !3
  br label %91

91:                                               ; preds = %readbufferfix.exit, %readbufferfix.exit107
  %.0 = phi i32 [ 0, %readbufferfix.exit107 ], [ 1, %readbufferfix.exit ]
  ret i32 %.0
}